target datalayout = "e-m:e-p270:32:32-p271:32:32-p272:64:64-i64:64-i128:128-f80:128-n8:16:32:64-S128"
target triple = "x86_64-pc-linux-gnu"

%struct.lua_TValue = type { %union.Value, i32 }
%union.Value = type { ptr }
%struct.lua_State = type { ptr, i8, i8, i8, ptr, ptr, ptr, ptr, ptr, ptr, ptr, ptr, ptr, i32, i32, i16, i16, i8, i8, i32, i32, ptr, %struct.lua_TValue, %struct.lua_TValue, ptr, ptr, ptr, i64 }

; Function Attrs: nounwind uwtable
define dso_local void @lua_xmove(ptr noundef %0, ptr noundef %1, i32 noundef %2) #0 {
  %4 = alloca ptr, align 8
  %5 = alloca ptr, align 8
  %6 = alloca i32, align 4
  %7 = alloca i32, align 4
  %8 = alloca i32, align 4
  %9 = alloca ptr, align 8
  %10 = alloca ptr, align 8
  store ptr %0, ptr %4, align 8, !tbaa !4
  store ptr %1, ptr %5, align 8, !tbaa !4
  store i32 %2, ptr %6, align 4, !tbaa !25
  call void @llvm.lifetime.start.p0(i64 4, ptr %7) #6
  %11 = load ptr, ptr %4, align 8, !tbaa !4
  %12 = load ptr, ptr %5, align 8, !tbaa !4
  %13 = icmp eq ptr %11, %12
  br i1 %13, label %14, label %15

14:                                               ; preds = %3
  store i32 1, ptr %8, align 4
  br label %51

15:                                               ; preds = %3
  %16 = load i32, ptr %6, align 4, !tbaa !25
  %17 = load ptr, ptr %4, align 8, !tbaa !4
  %18 = getelementptr inbounds nuw %struct.lua_State, ptr %17, i32 0, i32 4
  %19 = load ptr, ptr %18, align 8, !tbaa !11
  %20 = sext i32 %16 to i64
  %21 = sub i64 0, %20
  %22 = getelementptr inbounds %struct.lua_TValue, ptr %19, i64 %21
  store ptr %22, ptr %18, align 8, !tbaa !11
  store i32 0, ptr %7, align 4, !tbaa !25
  br label %23

23:                                               ; preds = %47, %15
  %24 = load i32, ptr %7, align 4, !tbaa !25
  %25 = load i32, ptr %6, align 4, !tbaa !25
  %26 = icmp slt i32 %24, %25
  br i1 %26, label %27, label %50

27:                                               ; preds = %23
  call void @llvm.lifetime.start.p0(i64 8, ptr %9) #6
  %28 = load ptr, ptr %4, align 8, !tbaa !4
  %29 = getelementptr inbounds nuw %struct.lua_State, ptr %28, i32 0, i32 4
  %30 = load ptr, ptr %29, align 8, !tbaa !11
  %31 = load i32, ptr %7, align 4, !tbaa !25
  %32 = sext i32 %31 to i64
  %33 = getelementptr inbounds %struct.lua_TValue, ptr %30, i64 %32
  store ptr %33, ptr %9, align 8, !tbaa !9
  call void @llvm.lifetime.start.p0(i64 8, ptr %10) #6
  %34 = load ptr, ptr %5, align 8, !tbaa !4
  %35 = getelementptr inbounds nuw %struct.lua_State, ptr %34, i32 0, i32 4
  %36 = load ptr, ptr %35, align 8, !tbaa !11
  %37 = getelementptr inbounds nuw %struct.lua_TValue, ptr %36, i32 1
  store ptr %37, ptr %35, align 8, !tbaa !11
  store ptr %36, ptr %10, align 8, !tbaa !9
  %38 = load ptr, ptr %10, align 8, !tbaa !9
  %39 = getelementptr inbounds nuw %struct.lua_TValue, ptr %38, i32 0, i32 0
  %40 = load ptr, ptr %9, align 8, !tbaa !9
  %41 = getelementptr inbounds nuw %struct.lua_TValue, ptr %40, i32 0, i32 0
  call void @llvm.memcpy.p0.p0.i64(ptr align 8 %39, ptr align 8 %41, i64 8, i1 false), !tbaa.struct !22
  %42 = load ptr, ptr %9, align 8, !tbaa !9
  %43 = getelementptr inbounds nuw %struct.lua_TValue, ptr %42, i32 0, i32 1
  %44 = load i32, ptr %43, align 8, !tbaa !24
  %45 = load ptr, ptr %10, align 8, !tbaa !9
  %46 = getelementptr inbounds nuw %struct.lua_TValue, ptr %45, i32 0, i32 1
  store i32 %44, ptr %46, align 8, !tbaa !24
  call void @llvm.lifetime.end.p0(i64 8, ptr %10) #6
  call void @llvm.lifetime.end.p0(i64 8, ptr %9) #6
  br label %47

47:                                               ; preds = %27
  %48 = load i32, ptr %7, align 4, !tbaa !25
  %49 = add nsw i32 %48, 1
  store i32 %49, ptr %7, align 4, !tbaa !25
  br label %23, !llvm.loop !31

50:                                               ; preds = %23
  store i32 0, ptr %8, align 4
  br label %51

51:                                               ; preds = %50, %14
  call void @llvm.lifetime.end.p0(i64 4, ptr %7) #6
  %52 = load i32, ptr %8, align 4
  switch i32 %52, label %54 [
    i32 0, label %53
    i32 1, label %53
  ]

53:                                               ; preds = %51, %51
  ret void

54:                                               ; preds = %51
  unreachable
}