; Function Attrs: nofree norecurse nosync nounwind memory(readwrite, inaccessiblemem: none) uwtable
define dso_local void @lua_xmove(ptr noundef captures(address) %0, ptr noundef captures(address) %1, i32 noundef %2) local_unnamed_addr #4 {
  %4 = icmp eq ptr %0, %1
  br i1 %4, label %.loopexit, label %5

5:                                                ; preds = %3
  %6 = getelementptr inbounds nuw i8, ptr %0, i64 16
  %7 = load ptr, ptr %6, align 8, !tbaa !4
  %8 = sext i32 %2 to i64
  %9 = sub nsw i64 0, %8
  %10 = getelementptr inbounds %struct.lua_TValue, ptr %7, i64 %9
  store ptr %10, ptr %6, align 8, !tbaa !4
  %11 = icmp sgt i32 %2, 0
  br i1 %11, label %.lr.ph, label %.loopexit

.lr.ph:                                           ; preds = %5
  %12 = getelementptr inbounds nuw i8, ptr %1, i64 16
  %wide.trip.count = zext nneg i32 %2 to i64
  br label %13

13:                                               ; preds = %.lr.ph, %13
  %indvars.iv = phi i64 [ 0, %.lr.ph ], [ %indvars.iv.next, %13 ]
  %14 = load ptr, ptr %6, align 8, !tbaa !4
  %15 = getelementptr inbounds nuw %struct.lua_TValue, ptr %14, i64 %indvars.iv
  %16 = load ptr, ptr %12, align 8, !tbaa !4
  %17 = getelementptr inbounds nuw i8, ptr %16, i64 16
  store ptr %17, ptr %12, align 8, !tbaa !4
  %18 = load i64, ptr %15, align 8, !tbaa !19
  store i64 %18, ptr %16, align 8, !tbaa !19
  %19 = getelementptr inbounds nuw i8, ptr %15, i64 8
  %20 = load i32, ptr %19, align 8, !tbaa !20
  %21 = getelementptr inbounds nuw i8, ptr %16, i64 8
  store i32 %20, ptr %21, align 8, !tbaa !20
  %indvars.iv.next = add nuw nsw i64 %indvars.iv, 1
  %exitcond.not = icmp eq i64 %indvars.iv.next, %wide.trip.count
  br i1 %exitcond.not, label %.loopexit, label %13, !llvm.loop !26

.loopexit:                                        ; preds = %13, %5, %3
  ret void
}